; Function Attrs: mustprogress nofree norecurse nosync nounwind willreturn memory(read, argmem: readwrite, inaccessiblemem: none) uwtable
define noundef zeroext i16 @_ZN6icu_779VTZReader4readEv(ptr noundef nonnull align 8 captures(none) dereferenceable(12) %0) local_unnamed_addr #3 align 2 {
  %2 = getelementptr inbounds nuw i8, ptr %0, i64 8
  %3 = load i32, ptr %2, align 8, !tbaa !16
  %4 = load ptr, ptr %0, align 8, !tbaa !13
  %5 = getelementptr inbounds nuw i8, ptr %4, i64 8
  %6 = load i16, ptr %5, align 8, !tbaa !9
  %7 = icmp slt i16 %6, 0
  %8 = ashr i16 %6, 5
  %9 = sext i16 %8 to i32
  %10 = getelementptr inbounds nuw i8, ptr %4, i64 12
  %11 = load i32, ptr %10, align 4
  %12 = select i1 %7, i32 %11, i32 %9
  %13 = icmp slt i32 %3, %12
  %14 = icmp ult i32 %3, %12
  %or.cond = and i1 %13, %14
  br i1 %or.cond, label %15, label %_ZNK6icu_7713UnicodeString6charAtEi.exit

15:                                               ; preds = %1
  %16 = and i16 %6, 2
  %.not.i.i.i = icmp eq i16 %16, 0
  %17 = getelementptr inbounds nuw i8, ptr %4, i64 10
  %18 = getelementptr inbounds nuw i8, ptr %4, i64 24
  %19 = load ptr, ptr %18, align 8
  %20 = select i1 %.not.i.i.i, ptr %19, ptr %17
  %21 = sext i32 %3 to i64
  %22 = getelementptr inbounds i16, ptr %20, i64 %21
  %23 = load i16, ptr %22, align 2, !tbaa !10
  br label %_ZNK6icu_7713UnicodeString6charAtEi.exit

_ZNK6icu_7713UnicodeString6charAtEi.exit:         ; preds = %15, %1
  %.0 = phi i16 [ -1, %1 ], [ %23, %15 ]
  %24 = add nsw i32 %3, 1
  store i32 %24, ptr %2, align 8, !tbaa !16
  ret i16 %.0
}